target datalayout = "e-m:e-p270:32:32-p271:32:32-p272:64:64-i64:64-i128:128-f80:128-n8:16:32:64-S128"
target triple = "x86_64-pc-linux-gnu"

%struct.AVRational = type { i32, i32 }
%struct.AVPacket = type { ptr, i64, i64, ptr, i32, i32, i32, ptr, i32, i64, i64, ptr, ptr, %struct.AVRational }
%struct.AVBufferRef = type { ptr, ptr, i64 }

@.str = private unnamed_addr constant [30 x i8] c"Assertion %s failed at %s:%d\0A\00", align 1
@.str.1 = private unnamed_addr constant [39 x i8] c"(unsigned)pkt->size <= 2147483647 - 64\00", align 1
@.str.2 = private unnamed_addr constant [20 x i8] c"libavcodec/packet.c\00", align 1

; Function Attrs: nounwind uwtable
define i32 @av_grow_packet(ptr noundef %0, i32 noundef %1) #0 {
  %3 = alloca i32, align 4
  %4 = alloca ptr, align 8
  %5 = alloca i32, align 4
  %6 = alloca i32, align 4
  %7 = alloca i32, align 4
  %8 = alloca i64, align 8
  %9 = alloca ptr, align 8
  %10 = alloca i32, align 4
  store ptr %0, ptr %4, align 8, !tbaa !4
  store i32 %1, ptr %5, align 4, !tbaa !28
  call void @llvm.lifetime.start.p0(i64 4, ptr %6) #9
  br label %11

11:                                               ; preds = %2
  %12 = load ptr, ptr %4, align 8, !tbaa !4
  %13 = getelementptr inbounds nuw %struct.AVPacket, ptr %12, i32 0, i32 4
  %14 = load i32, ptr %13, align 8, !tbaa !39
  %15 = icmp ule i32 %14, 2147483583
  br i1 %15, label %17, label %16

16:                                               ; preds = %11
  call void (ptr, i32, ptr, ...) @av_log(ptr noundef null, i32 noundef 0, ptr noundef @.str, ptr noundef @.str.1, ptr noundef @.str.2, i32 noundef 125)
  call void @abort() #10
  unreachable

17:                                               ; preds = %11
  br label %18

18:                                               ; preds = %17
  br label %19

19:                                               ; preds = %18
  %20 = load i32, ptr %5, align 4, !tbaa !28
  %21 = load ptr, ptr %4, align 8, !tbaa !4
  %22 = getelementptr inbounds nuw %struct.AVPacket, ptr %21, i32 0, i32 4
  %23 = load i32, ptr %22, align 8, !tbaa !39
  %24 = add nsw i32 %23, 64
  %25 = sub nsw i32 2147483647, %24
  %26 = icmp ugt i32 %20, %25
  br i1 %26, label %27, label %28

27:                                               ; preds = %19
  store i32 -12, ptr %3, align 4
  store i32 1, ptr %7, align 4
  br label %189

28:                                               ; preds = %19
  %29 = load ptr, ptr %4, align 8, !tbaa !4
  %30 = getelementptr inbounds nuw %struct.AVPacket, ptr %29, i32 0, i32 4
  %31 = load i32, ptr %30, align 8, !tbaa !39
  %32 = load i32, ptr %5, align 4, !tbaa !28
  %33 = add nsw i32 %31, %32
  %34 = add nsw i32 %33, 64
  store i32 %34, ptr %6, align 4, !tbaa !28
  %35 = load ptr, ptr %4, align 8, !tbaa !4
  %36 = getelementptr inbounds nuw %struct.AVPacket, ptr %35, i32 0, i32 0
  %37 = load ptr, ptr %36, align 8, !tbaa !22
  %38 = icmp ne ptr %37, null
  br i1 %38, label %39, label %138

39:                                               ; preds = %28
  call void @llvm.lifetime.start.p0(i64 8, ptr %8) #9
  call void @llvm.lifetime.start.p0(i64 8, ptr %9) #9
  %40 = load ptr, ptr %4, align 8, !tbaa !4
  %41 = getelementptr inbounds nuw %struct.AVPacket, ptr %40, i32 0, i32 3
  %42 = load ptr, ptr %41, align 8, !tbaa !38
  store ptr %42, ptr %9, align 8, !tbaa !42
  %43 = load ptr, ptr %4, align 8, !tbaa !4
  %44 = getelementptr inbounds nuw %struct.AVPacket, ptr %43, i32 0, i32 3
  %45 = load ptr, ptr %44, align 8, !tbaa !38
  %46 = icmp eq ptr %45, null
  br i1 %46, label %47, label %55

47:                                               ; preds = %39
  store i64 0, ptr %8, align 8, !tbaa !43
  %48 = load ptr, ptr %4, align 8, !tbaa !4
  %49 = getelementptr inbounds nuw %struct.AVPacket, ptr %48, i32 0, i32 0
  %50 = load ptr, ptr %49, align 8, !tbaa !22
  %51 = getelementptr inbounds nuw %struct.AVBufferRef, ptr %50, i32 0, i32 1
  %52 = load ptr, ptr %51, align 8, !tbaa !35
  %53 = load ptr, ptr %4, align 8, !tbaa !4
  %54 = getelementptr inbounds nuw %struct.AVPacket, ptr %53, i32 0, i32 3
  store ptr %52, ptr %54, align 8, !tbaa !38
  br label %74

55:                                               ; preds = %39
  %56 = load ptr, ptr %4, align 8, !tbaa !4
  %57 = getelementptr inbounds nuw %struct.AVPacket, ptr %56, i32 0, i32 3
  %58 = load ptr, ptr %57, align 8, !tbaa !38
  %59 = load ptr, ptr %4, align 8, !tbaa !4
  %60 = getelementptr inbounds nuw %struct.AVPacket, ptr %59, i32 0, i32 0
  %61 = load ptr, ptr %60, align 8, !tbaa !22
  %62 = getelementptr inbounds nuw %struct.AVBufferRef, ptr %61, i32 0, i32 1
  %63 = load ptr, ptr %62, align 8, !tbaa !35
  %64 = ptrtoint ptr %58 to i64
  %65 = ptrtoint ptr %63 to i64
  %66 = sub i64 %64, %65
  store i64 %66, ptr %8, align 8, !tbaa !43
  %67 = load i64, ptr %8, align 8, !tbaa !43
  %68 = load i32, ptr %6, align 4, !tbaa !28
  %69 = sub nsw i32 2147483647, %68
  %70 = sext i32 %69 to i64
  %71 = icmp ugt i64 %67, %70
  br i1 %71, label %72, label %73

72:                                               ; preds = %55
  store i32 -12, ptr %3, align 4
  store i32 1, ptr %7, align 4
  br label %135

73:                                               ; preds = %55
  br label %74

74:                                               ; preds = %73, %47
  %75 = load i32, ptr %6, align 4, !tbaa !28
  %76 = sext i32 %75 to i64
  %77 = load i64, ptr %8, align 8, !tbaa !43
  %78 = add i64 %76, %77
  %79 = load ptr, ptr %4, align 8, !tbaa !4
  %80 = getelementptr inbounds nuw %struct.AVPacket, ptr %79, i32 0, i32 0
  %81 = load ptr, ptr %80, align 8, !tbaa !22
  %82 = getelementptr inbounds nuw %struct.AVBufferRef, ptr %81, i32 0, i32 2
  %83 = load i64, ptr %82, align 8, !tbaa !44
  %84 = icmp ugt i64 %78, %83
  br i1 %84, label %91, label %85

85:                                               ; preds = %74
  %86 = load ptr, ptr %4, align 8, !tbaa !4
  %87 = getelementptr inbounds nuw %struct.AVPacket, ptr %86, i32 0, i32 0
  %88 = load ptr, ptr %87, align 8, !tbaa !22
  %89 = call i32 @av_buffer_is_writable(ptr noundef %88)
  %90 = icmp ne i32 %89, 0
  br i1 %90, label %134, label %91

91:                                               ; preds = %85, %74
  call void @llvm.lifetime.start.p0(i64 4, ptr %10) #9
  %92 = load i32, ptr %6, align 4, !tbaa !28
  %93 = sext i32 %92 to i64
  %94 = load i64, ptr %8, align 8, !tbaa !43
  %95 = add i64 %93, %94
  %96 = load i32, ptr %6, align 4, !tbaa !28
  %97 = sdiv i32 %96, 16
  %98 = sub nsw i32 2147483647, %97
  %99 = sext i32 %98 to i64
  %100 = icmp ult i64 %95, %99
  br i1 %100, label %101, label %106

101:                                              ; preds = %91
  %102 = load i32, ptr %6, align 4, !tbaa !28
  %103 = sdiv i32 %102, 16
  %104 = load i32, ptr %6, align 4, !tbaa !28
  %105 = add nsw i32 %104, %103
  store i32 %105, ptr %6, align 4, !tbaa !28
  br label %106

106:                                              ; preds = %101, %91
  %107 = load ptr, ptr %4, align 8, !tbaa !4
  %108 = getelementptr inbounds nuw %struct.AVPacket, ptr %107, i32 0, i32 0
  %109 = load i32, ptr %6, align 4, !tbaa !28
  %110 = sext i32 %109 to i64
  %111 = load i64, ptr %8, align 8, !tbaa !43
  %112 = add i64 %110, %111
  %113 = call i32 @av_buffer_realloc(ptr noundef %108, i64 noundef %112)
  store i32 %113, ptr %10, align 4, !tbaa !28
  %114 = load i32, ptr %10, align 4, !tbaa !28
  %115 = icmp slt i32 %114, 0
  br i1 %115, label %116, label %121

116:                                              ; preds = %106
  %117 = load ptr, ptr %9, align 8, !tbaa !42
  %118 = load ptr, ptr %4, align 8, !tbaa !4
  %119 = getelementptr inbounds nuw %struct.AVPacket, ptr %118, i32 0, i32 3
  store ptr %117, ptr %119, align 8, !tbaa !38
  %120 = load i32, ptr %10, align 4, !tbaa !28
  store i32 %120, ptr %3, align 4
  store i32 1, ptr %7, align 4
  br label %131

121:                                              ; preds = %106
  %122 = load ptr, ptr %4, align 8, !tbaa !4
  %123 = getelementptr inbounds nuw %struct.AVPacket, ptr %122, i32 0, i32 0
  %124 = load ptr, ptr %123, align 8, !tbaa !22
  %125 = getelementptr inbounds nuw %struct.AVBufferRef, ptr %124, i32 0, i32 1
  %126 = load ptr, ptr %125, align 8, !tbaa !35
  %127 = load i64, ptr %8, align 8, !tbaa !43
  %128 = getelementptr inbounds nuw i8, ptr %126, i64 %127
  %129 = load ptr, ptr %4, align 8, !tbaa !4
  %130 = getelementptr inbounds nuw %struct.AVPacket, ptr %129, i32 0, i32 3
  store ptr %128, ptr %130, align 8, !tbaa !38
  store i32 0, ptr %7, align 4
  br label %131

131:                                              ; preds = %121, %116
  call void @llvm.lifetime.end.p0(i64 4, ptr %10) #9
  %132 = load i32, ptr %7, align 4
  switch i32 %132, label %135 [
    i32 0, label %133
  ]

133:                                              ; preds = %131
  br label %134

134:                                              ; preds = %133, %85
  store i32 0, ptr %7, align 4
  br label %135

135:                                              ; preds = %134, %131, %72
  call void @llvm.lifetime.end.p0(i64 8, ptr %9) #9
  call void @llvm.lifetime.end.p0(i64 8, ptr %8) #9
  %136 = load i32, ptr %7, align 4
  switch i32 %136, label %189 [
    i32 0, label %137
  ]

137:                                              ; preds = %135
  br label %175

138:                                              ; preds = %28
  %139 = load i32, ptr %6, align 4, !tbaa !28
  %140 = sext i32 %139 to i64
  %141 = call ptr @av_buffer_alloc(i64 noundef %140)
  %142 = load ptr, ptr %4, align 8, !tbaa !4
  %143 = getelementptr inbounds nuw %struct.AVPacket, ptr %142, i32 0, i32 0
  store ptr %141, ptr %143, align 8, !tbaa !22
  %144 = load ptr, ptr %4, align 8, !tbaa !4
  %145 = getelementptr inbounds nuw %struct.AVPacket, ptr %144, i32 0, i32 0
  %146 = load ptr, ptr %145, align 8, !tbaa !22
  %147 = icmp ne ptr %146, null
  br i1 %147, label %149, label %148

148:                                              ; preds = %138
  store i32 -12, ptr %3, align 4
  store i32 1, ptr %7, align 4
  br label %189

149:                                              ; preds = %138
  %150 = load ptr, ptr %4, align 8, !tbaa !4
  %151 = getelementptr inbounds nuw %struct.AVPacket, ptr %150, i32 0, i32 4
  %152 = load i32, ptr %151, align 8, !tbaa !39
  %153 = icmp sgt i32 %152, 0
  br i1 %153, label %154, label %167

154:                                              ; preds = %149
  %155 = load ptr, ptr %4, align 8, !tbaa !4
  %156 = getelementptr inbounds nuw %struct.AVPacket, ptr %155, i32 0, i32 0
  %157 = load ptr, ptr %156, align 8, !tbaa !22
  %158 = getelementptr inbounds nuw %struct.AVBufferRef, ptr %157, i32 0, i32 1
  %159 = load ptr, ptr %158, align 8, !tbaa !35
  %160 = load ptr, ptr %4, align 8, !tbaa !4
  %161 = getelementptr inbounds nuw %struct.AVPacket, ptr %160, i32 0, i32 3
  %162 = load ptr, ptr %161, align 8, !tbaa !38
  %163 = load ptr, ptr %4, align 8, !tbaa !4
  %164 = getelementptr inbounds nuw %struct.AVPacket, ptr %163, i32 0, i32 4
  %165 = load i32, ptr %164, align 8, !tbaa !39
  %166 = sext i32 %165 to i64
  call void @llvm.memcpy.p0.p0.i64(ptr align 1 %159, ptr align 1 %162, i64 %166, i1 false)
  br label %167

167:                                              ; preds = %154, %149
  %168 = load ptr, ptr %4, align 8, !tbaa !4
  %169 = getelementptr inbounds nuw %struct.AVPacket, ptr %168, i32 0, i32 0
  %170 = load ptr, ptr %169, align 8, !tbaa !22
  %171 = getelementptr inbounds nuw %struct.AVBufferRef, ptr %170, i32 0, i32 1
  %172 = load ptr, ptr %171, align 8, !tbaa !35
  %173 = load ptr, ptr %4, align 8, !tbaa !4
  %174 = getelementptr inbounds nuw %struct.AVPacket, ptr %173, i32 0, i32 3
  store ptr %172, ptr %174, align 8, !tbaa !38
  br label %175

175:                                              ; preds = %167, %137
  %176 = load i32, ptr %5, align 4, !tbaa !28
  %177 = load ptr, ptr %4, align 8, !tbaa !4
  %178 = getelementptr inbounds nuw %struct.AVPacket, ptr %177, i32 0, i32 4
  %179 = load i32, ptr %178, align 8, !tbaa !39
  %180 = add nsw i32 %179, %176
  store i32 %180, ptr %178, align 8, !tbaa !39
  %181 = load ptr, ptr %4, align 8, !tbaa !4
  %182 = getelementptr inbounds nuw %struct.AVPacket, ptr %181, i32 0, i32 3
  %183 = load ptr, ptr %182, align 8, !tbaa !38
  %184 = load ptr, ptr %4, align 8, !tbaa !4
  %185 = getelementptr inbounds nuw %struct.AVPacket, ptr %184, i32 0, i32 4
  %186 = load i32, ptr %185, align 8, !tbaa !39
  %187 = sext i32 %186 to i64
  %188 = getelementptr inbounds i8, ptr %183, i64 %187
  call void @llvm.memset.p0.i64(ptr align 1 %188, i8 0, i64 64, i1 false)
  store i32 0, ptr %3, align 4
  store i32 1, ptr %7, align 4
  br label %189

189:                                              ; preds = %175, %148, %135, %27
  call void @llvm.lifetime.end.p0(i64 4, ptr %6) #9
  %190 = load i32, ptr %3, align 4
  ret i32 %190
}