; Function Attrs: nounwind uwtable
define range(i32 -2147483648, 1) i32 @av_grow_packet(ptr noundef %0, i32 noundef %1) local_unnamed_addr #3 {
  %3 = getelementptr inbounds nuw i8, ptr %0, i64 32
  %4 = load i32, ptr %3, align 8, !tbaa !32
  %5 = icmp ult i32 %4, 2147483584
  br i1 %5, label %7, label %6

6:                                                ; preds = %2
  tail call void (ptr, i32, ptr, ...) @av_log(ptr noundef null, i32 noundef 0, ptr noundef nonnull @.str, ptr noundef nonnull @.str.1, ptr noundef nonnull @.str.2, i32 noundef 125) #16
  tail call void @abort() #17
  unreachable

7:                                                ; preds = %2
  %8 = sub nuw nsw i32 2147483583, %4
  %9 = icmp ugt i32 %1, %8
  br i1 %9, label %73, label %10

10:                                               ; preds = %7
  %11 = add nuw nsw i32 %4, %1
  %12 = add nuw nsw i32 %11, 64
  %13 = load ptr, ptr %0, align 8, !tbaa !20
  %.not = icmp eq ptr %13, null
  br i1 %.not, label %51, label %14

14:                                               ; preds = %10
  %15 = getelementptr inbounds nuw i8, ptr %0, i64 24
  %16 = load ptr, ptr %15, align 8, !tbaa !31
  %17 = icmp eq ptr %16, null
  %18 = getelementptr inbounds nuw i8, ptr %13, i64 8
  %19 = load ptr, ptr %18, align 8, !tbaa !28
  br i1 %17, label %20, label %21

20:                                               ; preds = %14
  store ptr %19, ptr %15, align 8, !tbaa !31
  br label %28

21:                                               ; preds = %14
  %22 = ptrtoint ptr %16 to i64
  %23 = ptrtoint ptr %19 to i64
  %24 = sub i64 %22, %23
  %25 = sub nuw nsw i32 2147483583, %11
  %26 = zext nneg i32 %25 to i64
  %27 = icmp ugt i64 %24, %26
  br i1 %27, label %73, label %28

28:                                               ; preds = %21, %20
  %.050 = phi i64 [ 0, %20 ], [ %24, %21 ]
  %29 = zext nneg i32 %12 to i64
  %30 = add nuw nsw i64 %.050, %29
  %31 = getelementptr inbounds nuw i8, ptr %13, i64 16
  %32 = load i64, ptr %31, align 8, !tbaa !33
  %33 = icmp ugt i64 %30, %32
  br i1 %33, label %36, label %34

34:                                               ; preds = %28
  %35 = tail call i32 @av_buffer_is_writable(ptr noundef nonnull %13) #16
  %.not61 = icmp eq i32 %35, 0
  br i1 %.not61, label %36, label %..thread_crit_edge

..thread_crit_edge:                               ; preds = %34
  %.pre64 = load ptr, ptr %15, align 8, !tbaa !31
  br label %.thread

36:                                               ; preds = %34, %28
  %37 = lshr i32 %12, 4
  %38 = xor i32 %37, 2147483647
  %39 = zext nneg i32 %38 to i64
  %40 = icmp samesign ult i64 %30, %39
  %41 = select i1 %40, i32 %37, i32 0
  %spec.select = add nuw nsw i32 %41, %12
  %42 = zext nneg i32 %spec.select to i64
  %43 = add nuw nsw i64 %.050, %42
  %44 = tail call i32 @av_buffer_realloc(ptr noundef nonnull %0, i64 noundef %43) #16
  %45 = icmp sgt i32 %44, -1
  br i1 %45, label %46, label %.critedge

46:                                               ; preds = %36
  %47 = load ptr, ptr %0, align 8, !tbaa !20
  %48 = getelementptr inbounds nuw i8, ptr %47, i64 8
  %49 = load ptr, ptr %48, align 8, !tbaa !28
  %50 = getelementptr inbounds nuw i8, ptr %49, i64 %.050
  store ptr %50, ptr %15, align 8, !tbaa !31
  br label %.thread

.critedge:                                        ; preds = %36
  store ptr %16, ptr %15, align 8, !tbaa !31
  br label %73

51:                                               ; preds = %10
  %52 = zext nneg i32 %12 to i64
  %53 = tail call ptr @av_buffer_alloc(i64 noundef %52) #16
  store ptr %53, ptr %0, align 8, !tbaa !20
  %.not60 = icmp eq ptr %53, null
  br i1 %.not60, label %73, label %54

54:                                               ; preds = %51
  %55 = load i32, ptr %3, align 8, !tbaa !32
  %56 = icmp sgt i32 %55, 0
  br i1 %56, label %57, label %63

57:                                               ; preds = %54
  %58 = getelementptr inbounds nuw i8, ptr %53, i64 8
  %59 = load ptr, ptr %58, align 8, !tbaa !28
  %60 = getelementptr inbounds nuw i8, ptr %0, i64 24
  %61 = load ptr, ptr %60, align 8, !tbaa !31
  %62 = zext nneg i32 %55 to i64
  tail call void @llvm.memcpy.p0.p0.i64(ptr align 1 %59, ptr align 1 %61, i64 %62, i1 false)
  %.pre = load ptr, ptr %0, align 8, !tbaa !20
  br label %63

63:                                               ; preds = %57, %54
  %64 = phi ptr [ %.pre, %57 ], [ %53, %54 ]
  %65 = getelementptr inbounds nuw i8, ptr %64, i64 8
  %66 = load ptr, ptr %65, align 8, !tbaa !28
  %67 = getelementptr inbounds nuw i8, ptr %0, i64 24
  store ptr %66, ptr %67, align 8, !tbaa !31
  br label %.thread

.thread:                                          ; preds = %..thread_crit_edge, %46, %63
  %68 = phi ptr [ %.pre64, %..thread_crit_edge ], [ %50, %46 ], [ %66, %63 ]
  %69 = load i32, ptr %3, align 8, !tbaa !32
  %70 = add nsw i32 %69, %1
  store i32 %70, ptr %3, align 8, !tbaa !32
  %71 = sext i32 %70 to i64
  %72 = getelementptr inbounds i8, ptr %68, i64 %71
  tail call void @llvm.memset.p0.i64(ptr noundef nonnull align 1 dereferenceable(64) %72, i8 0, i64 64, i1 false)
  br label %73

73:                                               ; preds = %21, %.critedge, %51, %7, %.thread
  %.0 = phi i32 [ 0, %.thread ], [ -12, %7 ], [ -12, %51 ], [ -12, %21 ], [ %44, %.critedge ]
  ret i32 %.0
}